Certificate:
    Data:
        Version: 3 (0x2)
        Serial Number: 10 (0xa)
        Signature Algorithm: sha256WithRSAEncryption
        Issuer: C=DE, ST=RLP, L=Diez, O=Hesotech GmbH, OU=Hesotech GmbH, CN=hesotech.eu/name=Hesotech Server/emailAddress=info@hesotech.de
        Validity
            Not Before: Aug 16 11:37:30 2022 GMT
            Not After : Aug 13 11:37:30 2032 GMT
        Subject: C=DE, ST=RLP, L=Diez, O=Hesotech GmbH, OU=Hesotech GmbH, CN=pilot-users/name=pilot-users/emailAddress=info@hesotech.de
        Subject Public Key Info:
            Public Key Algorithm: rsaEncryption
                RSA Public-Key: (4096 bit)
                Modulus:
                    00:b8:c9:4b:b2:bb:09:58:3b:c3:c9:50:a4:fb:7b:
                    e7:7d:af:3d:86:19:b5:3a:5b:cc:eb:fb:ae:c3:36:
                    ce:72:29:44:31:4c:ef:0c:e5:50:85:4d:50:5d:04:
                    75:1e:37:8b:2a:fc:8a:c5:0c:17:10:50:8f:2b:91:
                    5e:ac:74:7f:c1:06:e5:b7:d6:a5:ad:ef:00:58:6f:
                    cc:fa:db:4d:f0:15:76:65:11:04:11:96:ad:f4:c4:
                    03:91:1b:9b:f9:1b:5d:9c:c0:ce:86:f7:35:7b:f4:
                    11:27:0f:1a:03:de:ea:b9:8f:01:80:5b:17:a0:c8:
                    1b:18:99:27:97:12:6e:d4:45:f1:5c:0b:32:be:45:
                    7e:55:09:26:a3:86:5d:81:95:a1:ab:e5:68:07:29:
                    04:30:e7:90:00:7b:a9:0d:45:5c:51:3c:15:7b:7c:
                    41:58:30:37:cd:c7:63:15:a3:c6:19:19:fc:57:0a:
                    55:5c:8a:95:4b:4c:26:b9:6c:15:5e:d4:94:2b:ba:
                    44:3b:21:23:e6:ae:6a:9d:2d:6e:7a:a5:08:31:f7:
                    7b:48:00:59:45:0f:85:ed:6b:38:21:3e:e4:c3:9c:
                    b2:4f:70:e6:02:45:ae:21:2d:fb:46:aa:6e:3d:54:
                    c2:4c:76:50:4a:61:d6:df:f8:1d:2e:f1:4c:8f:66:
                    1f:88:9e:dd:d5:86:10:43:64:c4:fc:62:27:3c:b4:
                    73:4c:0f:b2:f5:73:e0:8b:13:67:68:23:b1:2f:66:
                    50:1e:7f:df:0b:b1:2c:3a:b5:56:6a:1e:af:c6:3e:
                    37:59:da:8d:d6:23:ea:d7:98:27:1a:d2:82:71:91:
                    8a:01:d1:5d:4e:69:89:f5:72:d8:c7:11:65:82:19:
                    66:a5:3f:96:b3:9d:a6:10:58:d9:b2:ef:8e:f5:db:
                    19:50:4f:94:40:00:aa:b5:f1:30:3d:d5:50:3d:60:
                    f2:6d:78:df:f2:ed:26:79:2e:5e:a6:f7:73:63:1c:
                    6e:3f:76:35:db:7a:b7:34:b7:6b:6e:73:48:c5:0d:
                    00:21:06:2a:14:54:b3:85:fc:cd:d8:c2:28:f9:29:
                    aa:19:ec:53:21:85:4b:03:f5:23:c8:5e:49:df:76:
                    58:66:4c:7a:e8:af:d5:af:93:b5:fd:67:90:c1:7e:
                    8c:87:97:07:af:2d:1b:73:cb:2b:2f:26:b1:da:98:
                    0a:a1:e8:d3:c7:8c:f0:61:86:c0:88:38:62:b8:b9:
                    ad:fc:6b:a5:cb:a8:fe:a6:e5:fb:9d:71:21:4b:54:
                    7b:88:3f:4a:09:29:ce:fc:90:4c:69:87:7d:34:36:
                    50:75:25:7d:4e:be:0d:65:8a:c4:55:b4:a4:7b:11:
                    99:94:49
                Exponent: 65537 (0x10001)
        X509v3 extensions:
            X509v3 Basic Constraints: 
                CA:FALSE
            Netscape Comment: 
                Easy-RSA Generated Certificate
            X509v3 Subject Key Identifier: 
                8D:B1:0F:C6:CC:31:42:5B:B8:6D:D4:42:2A:40:C9:B3:D8:8A:05:42
            X509v3 Authority Key Identifier: 
                keyid:34:E4:A6:C0:FD:10:74:58:DE:F2:87:ED:8E:23:3F:7F:28:8E:B8:29
                DirName:/C=DE/ST=RLP/L=Diez/O=Hesotech GmbH/OU=Hesotech GmbH/CN=hesotech.eu/name=Hesotech Server/emailAddress=info@hesotech.de
                serial:22:30:CC:BF:A8:B9:F4:FA:C1:2A:A1:4B:EA:36:1B:2F:B6:8E:CC:BA

            X509v3 Extended Key Usage: 
                TLS Web Client Authentication
            X509v3 Key Usage: 
                Digital Signature
    Signature Algorithm: sha256WithRSAEncryption
         48:6e:6e:bc:3a:97:31:96:34:2d:af:32:8f:85:7f:7f:33:4e:
         7d:ad:6e:a3:68:dd:65:a1:dd:78:04:9c:e9:49:ee:e5:16:f0:
         95:cd:66:94:9f:a3:af:e6:80:b1:65:d6:80:4c:0f:9c:c3:5e:
         10:30:13:11:2a:7a:89:8a:69:0e:2f:7e:3a:f8:a0:13:62:70:
         d2:56:79:a4:68:f1:b0:0d:72:a2:2f:19:07:29:0c:af:9e:4b:
         4e:35:12:88:32:9c:87:53:53:4b:e8:f9:d0:61:6c:2f:62:87:
         37:21:39:35:e8:ee:c9:ad:01:c3:8e:7d:16:55:89:8c:9d:f5:
         10:df:c2:11:c8:0c:af:2b:b7:68:aa:2c:36:f2:c4:19:cf:77:
         46:b0:78:67:d9:b4:6e:8b:ae:42:7b:00:ee:1f:1d:22:6b:f5:
         90:03:10:92:f6:5a:20:28:f1:ce:09:0c:90:2e:40:76:49:44:
         7e:7d:29:0a:a3:dc:ce:28:82:31:ec:a3:94:3f:3e:7d:a6:b0:
         53:3a:a8:1a:8f:8e:60:18:d5:0e:62:f0:d8:96:79:5a:ac:30:
         09:0a:c6:cc:5b:c5:44:6d:aa:f0:fd:0b:80:4c:a5:50:a4:c4:
         64:f1:93:c8:b8:a0:1a:f3:84:7d:1e:c9:43:2e:30:ab:6d:09:
         cc:be:54:6b:53:20:a5:b9:b1:91:bb:2a:42:a1:74:e3:90:92:
         05:f8:db:a1:c3:d9:23:32:92:01:16:1a:31:38:cc:0e:ed:91:
         33:c4:56:18:24:1c:b3:7d:20:00:a3:7d:f4:d0:a4:25:d7:75:
         a1:27:19:5d:86:f1:52:7f:25:de:88:84:29:c7:bb:3b:0d:aa:
         76:45:17:b2:9d:6a:fd:f7:78:cb:63:fb:5d:6b:2c:5c:22:de:
         e9:40:39:ee:d5:c2:cb:3b:00:a2:8b:72:70:e1:ea:31:a2:c1:
         b5:19:81:3b:c4:c7:52:9d:a6:d3:4e:d3:97:ca:5a:62:99:cd:
         70:2d:31:9c:e3:1b:b4:99:c9:bc:1a:53:97:36:ed:f1:27:fb:
         b4:1f:db:0b:26:03:ab:d8:17:36:b1:57:11:62:f7:9a:71:29:
         f3:b8:d6:c7:b5:3a:ff:f8:d0:d2:9d:ac:97:e0:23:86:9c:0f:
         1e:86:e4:a5:ad:48:62:70:5c:62:6f:b8:e4:d8:9b:c5:ba:38:
         57:fd:cc:e6:51:1f:7e:e2:53:e9:7a:ff:52:a1:88:02:64:b1:
         2e:32:85:fc:ee:91:ef:02:c6:1b:dd:6a:5e:b4:10:83:e1:a2:
         65:52:47:67:28:1c:87:85:05:9e:ef:50:4f:38:aa:64:f2:5c:
         ab:15:b8:d0:53:b4:cc:18
-----BEGIN CERTIFICATE-----
MIIHPjCCBSagAwIBAgIBCjANBgkqhkiG9w0BAQsFADCBqzELMAkGA1UEBhMCREUx
DDAKBgNVBAgTA1JMUDENMAsGA1UEBxMERGllejEWMBQGA1UEChMNSGVzb3RlY2gg
R21iSDEWMBQGA1UECxMNSGVzb3RlY2ggR21iSDEUMBIGA1UEAxMLaGVzb3RlY2gu
ZXUxGDAWBgNVBCkTD0hlc290ZWNoIFNlcnZlcjEfMB0GCSqGSIb3DQEJARYQaW5m
b0BoZXNvdGVjaC5kZTAeFw0yMjA4MTYxMTM3MzBaFw0zMjA4MTMxMTM3MzBaMIGn
MQswCQYDVQQGEwJERTEMMAoGA1UECBMDUkxQMQ0wCwYDVQQHEwREaWV6MRYwFAYD
VQQKEw1IZXNvdGVjaCBHbWJIMRYwFAYDVQQLEw1IZXNvdGVjaCBHbWJIMRQwEgYD
VQQDEwtwaWxvdC11c2VyczEUMBIGA1UEKRMLcGlsb3QtdXNlcnMxHzAdBgkqhkiG
9w0BCQEWEGluZm9AaGVzb3RlY2guZGUwggIiMA0GCSqGSIb3DQEBAQUAA4ICDwAw
ggIKAoICAQC4yUuyuwlYO8PJUKT7e+d9rz2GGbU6W8zr+67DNs5yKUQxTO8M5VCF
TVBdBHUeN4sq/IrFDBcQUI8rkV6sdH/BBuW31qWt7wBYb8z6203wFXZlEQQRlq30
xAORG5v5G12cwM6G9zV79BEnDxoD3uq5jwGAWxegyBsYmSeXEm7URfFcCzK+RX5V
CSajhl2BlaGr5WgHKQQw55AAe6kNRVxRPBV7fEFYMDfNx2MVo8YZGfxXClVcipVL
TCa5bBVe1JQrukQ7ISPmrmqdLW56pQgx93tIAFlFD4XtazghPuTDnLJPcOYCRa4h
LftGqm49VMJMdlBKYdbf+B0u8UyPZh+Int3VhhBDZMT8Yic8tHNMD7L1c+CLE2do
I7EvZlAef98LsSw6tVZqHq/GPjdZ2o3WI+rXmCca0oJxkYoB0V1OaYn1ctjHEWWC
GWalP5aznaYQWNmy74712xlQT5RAAKq18TA91VA9YPJteN/y7SZ5Ll6m93NjHG4/
djXberc0t2tuc0jFDQAhBioUVLOF/M3Ywij5KaoZ7FMhhUsD9SPIXknfdlhmTHro
r9Wvk7X9Z5DBfoyHlwevLRtzyysvJrHamAqh6NPHjPBhhsCIOGK4ua38a6XLqP6m
5fudcSFLVHuIP0oJKc78kExph300NlB1JX1Ovg1lisRVtKR7EZmUSQIDAQABo4IB
bTCCAWkwCQYDVR0TBAIwADAtBglghkgBhvhCAQ0EIBYeRWFzeS1SU0EgR2VuZXJh
dGVkIENlcnRpZmljYXRlMB0GA1UdDgQWBBSNsQ/GzDFCW7ht1EIqQMmz2IoFQjCB
6wYDVR0jBIHjMIHggBQ05KbA/RB0WN7yh+2OIz9/KI64KaGBsaSBrjCBqzELMAkG
A1UEBhMCREUxDDAKBgNVBAgTA1JMUDENMAsGA1UEBxMERGllejEWMBQGA1UEChMN
SGVzb3RlY2ggR21iSDEWMBQGA1UECxMNSGVzb3RlY2ggR21iSDEUMBIGA1UEAxML
aGVzb3RlY2guZXUxGDAWBgNVBCkTD0hlc290ZWNoIFNlcnZlcjEfMB0GCSqGSIb3
DQEJARYQaW5mb0BoZXNvdGVjaC5kZYIUIjDMv6i59PrBKqFL6jYbL7aOzLowEwYD
VR0lBAwwCgYIKwYBBQUHAwIwCwYDVR0PBAQDAgeAMA0GCSqGSIb3DQEBCwUAA4IC
AQBIbm68OpcxljQtrzKPhX9/M059rW6jaN1lod14BJzpSe7lFvCVzWaUn6Ov5oCx
ZdaATA+cw14QMBMRKnqJimkOL346+KATYnDSVnmkaPGwDXKiLxkHKQyvnktONRKI
MpyHU1NL6PnQYWwvYoc3ITk16O7JrQHDjn0WVYmMnfUQ38IRyAyvK7doqiw28sQZ
z3dGsHhn2bRui65CewDuHx0ia/WQAxCS9logKPHOCQyQLkB2SUR+fSkKo9zOKIIx
7KOUPz59prBTOqgaj45gGNUOYvDYlnlarDAJCsbMW8VEbarw/QuATKVQpMRk8ZPI
uKAa84R9HslDLjCrbQnMvlRrUyClubGRuypCoXTjkJIF+Nuhw9kjMpIBFhoxOMwO
7ZEzxFYYJByzfSAAo3300KQl13WhJxldhvFSfyXeiIQpx7s7Dap2RReynWr993jL
Y/tdayxcIt7pQDnu1cLLOwCii3Jw4eoxosG1GYE7xMdSnabTTtOXylpimc1wLTGc
4xu0mcm8GlOXNu3xJ/u0H9sLJgOr2Bc2sVcRYveacSnzuNbHtTr/+NDSnayX4COG
nA8ehuSlrUhicFxib7jk2JvFujhX/czmUR9+4lPpev9SoYgCZLEuMoX87pHvAsYb
3WpetBCD4aJlUkdnKByHhQWe71BPOKpk8lyrFbjQU7TMGA==
-----END CERTIFICATE-----
